target datalayout = "e-m:e-p270:32:32-p271:32:32-p272:64:64-i64:64-i128:128-f80:128-n8:16:32:64-S128"
target triple = "x86_64-pc-linux-gnu"

%struct.FunctionCallInfoBaseData = type { ptr, ptr, ptr, i32, i8, i16, [0 x %struct.NullableDatum] }
%struct.NullableDatum = type { i64, i8 }
%struct.StringInfoData = type { ptr, i32, i32, i32 }

; Function Attrs: inlinehint nounwind uwtable
define internal i64 @PointerGetDatum(ptr noundef %0) #2 {
  %2 = alloca ptr, align 8
  store ptr %0, ptr %2, align 8
  %3 = load ptr, ptr %2, align 8
  %4 = ptrtoint ptr %3 to i64
  ret i64 %4
}

; Function Attrs: nounwind uwtable
define dso_local i64 @row_to_json(ptr noundef %0) #0 {
  %2 = alloca ptr, align 8
  %3 = alloca i64, align 8
  %4 = alloca ptr, align 8
  store ptr %0, ptr %2, align 8
  call void @llvm.lifetime.start.p0(i64 8, ptr %3) #14
  %5 = load ptr, ptr %2, align 8
  %6 = getelementptr inbounds nuw %struct.FunctionCallInfoBaseData, ptr %5, i32 0, i32 6
  %7 = getelementptr inbounds [0 x %struct.NullableDatum], ptr %6, i64 0, i64 0
  %8 = getelementptr inbounds nuw %struct.NullableDatum, ptr %7, i32 0, i32 0
  %9 = load i64, ptr %8, align 8
  store i64 %9, ptr %3, align 8
  call void @llvm.lifetime.start.p0(i64 8, ptr %4) #14
  %10 = call ptr @makeStringInfo()
  store ptr %10, ptr %4, align 8
  %11 = load i64, ptr %3, align 8
  %12 = load ptr, ptr %4, align 8
  call void @composite_to_json(i64 noundef %11, ptr noundef %12, i1 noundef zeroext false)
  %13 = load ptr, ptr %4, align 8
  %14 = getelementptr inbounds nuw %struct.StringInfoData, ptr %13, i32 0, i32 0
  %15 = load ptr, ptr %14, align 8
  %16 = load ptr, ptr %4, align 8
  %17 = getelementptr inbounds nuw %struct.StringInfoData, ptr %16, i32 0, i32 1
  %18 = load i32, ptr %17, align 8
  %19 = call ptr @cstring_to_text_with_len(ptr noundef %15, i32 noundef %18)
  %20 = call i64 @PointerGetDatum(ptr noundef %19)
  call void @llvm.lifetime.end.p0(i64 8, ptr %4) #14
  call void @llvm.lifetime.end.p0(i64 8, ptr %3) #14
  ret i64 %20
}