; Function Attrs: nounwind uwtable
define dso_local i64 @row_to_json(ptr noundef readonly captures(none) %0) local_unnamed_addr #0 {
  %2 = getelementptr inbounds nuw i8, ptr %0, i64 32
  %3 = load i64, ptr %2, align 8
  %4 = tail call ptr @makeStringInfo() #10
  tail call fastcc void @composite_to_json(i64 noundef %3, ptr noundef %4, i1 noundef zeroext false)
  %5 = load ptr, ptr %4, align 8
  %6 = getelementptr inbounds nuw i8, ptr %4, i64 8
  %7 = load i32, ptr %6, align 8
  %8 = tail call ptr @cstring_to_text_with_len(ptr noundef %5, i32 noundef %7) #10
  %9 = ptrtoint ptr %8 to i64
  ret i64 %9
}